; ModuleID = '/tmp/tmpxft_0004bcfc_00000000-5_backprop_cuda.cudafe1.cpp'
source_filename = "/tmp/tmpxft_0004bcfc_00000000-5_backprop_cuda.cudafe1.cpp"
target datalayout = "e-m:e-i64:64-f80:128-n8:16:32:64-S128"
target triple = "x86_64-unknown-linux-gnu"

module asm ".section .nv_fatbin, \22a\22"
module asm ".align 8"
module asm "fatbinData:"
module asm ".quad 0x00100001ba55ed50,0x0000000000001e38,0x0000004001010002,0x00000000000015a8"
module asm ".quad 0x0000000000000000,0x0000001e00010007,0x0000000000000000,0x0000000000000011"
module asm ".quad 0x0000000000000000,0x0000000000000000,0x33010102464c457f,0x0000000000000007"
module asm ".quad 0x0000006600be0002,0x0000000000000000,0x0000000000001500,0x00000000000011c0"
module asm ".quad 0x00380040001e051e,0x0001000d00400003,0x7472747368732e00,0x747274732e006261"
module asm ".quad 0x746d79732e006261,0x746d79732e006261,0x78646e68735f6261,0x666e692e766e2e00"
module asm ".quad 0x2e747865742e006f,0x6e6e706234325a5f,0x5f7473756a64615f,0x5f73746867696577"
module asm ".quad 0x5369665061647563,0x2e005f535f53695f,0x2e6f666e692e766e,0x6e6e706234325a5f"
module asm ".quad 0x5f7473756a64615f,0x5f73746867696577,0x5369665061647563,0x2e005f535f53695f"
module asm ".quad 0x65726168732e766e,0x706234325a5f2e64,0x73756a64615f6e6e,0x7468676965775f74"
module asm ".quad 0x6650616475635f73,0x5f535f53695f5369,0x6e6f632e766e2e00,0x5f2e32746e617473"
module asm ".quad 0x5f6e6e706234325a,0x775f7473756a6461,0x635f737468676965,0x5f53696650616475"
module asm ".quad 0x6e2e005f535f5369,0x6174736e6f632e76,0x34325a5f2e30746e,0x6a64615f6e6e7062"
module asm ".quad 0x676965775f747375,0x616475635f737468,0x5f53695f53696650,0x747865742e005f53"
module asm ".quad 0x6e706232325a5f2e,0x66726579616c5f6e,0x435f64726177726f,0x535f536650414455"
module asm ".quad 0x6e2e0069695f535f,0x5f2e6f666e692e76,0x5f6e6e706232325a,0x726f66726579616c"
module asm ".quad 0x4455435f64726177,0x535f535f53665041,0x2e766e2e0069695f,0x5f2e646572616873"
module asm ".quad 0x5f6e6e706232325a,0x726f66726579616c,0x4455435f64726177,0x535f535f53665041"
module asm ".quad 0x2e766e2e0069695f,0x746e6174736e6f63,0x706232325a5f2e30,0x726579616c5f6e6e"
module asm ".quad 0x5f64726177726f66,0x5f53665041445543,0x000069695f535f53,0x617472747368732e"
module asm ".quad 0x61747274732e0062,0x61746d79732e0062,0x61746d79732e0062,0x0078646e68735f62"
module asm ".quad 0x6f666e692e766e2e,0x6e706234325a5f00,0x7473756a64615f6e,0x737468676965775f"
module asm ".quad 0x696650616475635f,0x005f535f53695f53,0x5a5f2e747865742e,0x615f6e6e70623432"
module asm ".quad 0x65775f7473756a64,0x75635f7374686769,0x695f536966506164,0x766e2e005f535f53"
module asm ".quad 0x5a5f2e6f666e692e,0x615f6e6e70623432,0x65775f7473756a64,0x75635f7374686769"
module asm ".quad 0x695f536966506164,0x766e2e005f535f53,0x2e6465726168732e,0x6e6e706234325a5f"
module asm ".quad 0x5f7473756a64615f,0x5f73746867696577,0x5369665061647563,0x2e005f535f53695f"
module asm ".quad 0x74736e6f632e766e,0x325a5f2e32746e61,0x64615f6e6e706234,0x6965775f7473756a"
module asm ".quad 0x6475635f73746867,0x53695f5369665061,0x636f5f5f005f535f,0x0074736e6f635f67"
module asm ".quad 0x736e6f632e766e2e,0x5a5f2e30746e6174,0x615f6e6e70623432,0x65775f7473756a64"
module asm ".quad 0x75635f7374686769,0x695f536966506164,0x61705f005f535f53,0x32325a5f006d6172"
module asm ".quad 0x79616c5f6e6e7062,0x726177726f667265,0x6650414455435f64,0x69695f535f535f53"
module asm ".quad 0x5f2e747865742e00,0x5f6e6e706232325a,0x726f66726579616c,0x4455435f64726177"
module asm ".quad 0x535f535f53665041,0x2e766e2e0069695f,0x325a5f2e6f666e69,0x616c5f6e6e706232"
module asm ".quad 0x6177726f66726579,0x50414455435f6472,0x695f535f535f5366,0x68732e766e2e0069"
module asm ".quad 0x325a5f2e64657261,0x616c5f6e6e706232,0x6177726f66726579,0x50414455435f6472"
module asm ".quad 0x695f535f535f5366,0x5a5a5f5f5f240069,0x6c5f6e6e70623232,0x77726f6672657961"
module asm ".quad 0x414455435f647261,0x5f535f535f536650,0x706e693031456969,0x5f65646f6e5f7475"
module asm ".quad 0x5f5f5f240031335f,0x6e6e706232325a5a,0x6f66726579616c5f,0x55435f6472617772"
module asm ".quad 0x5f535f5366504144,0x7733314569695f53,0x616d5f7468676965,0x33335f5f78697274"
module asm ".quad 0x6e6f632e766e2e00,0x5f2e30746e617473,0x5f6e6e706232325a,0x726f66726579616c"
module asm ".quad 0x4455435f64726177,0x535f535f53665041,0x000000000069695f,0x0000000000000000"
module asm ".quad 0x0000000000000000,0x0000000000000000,0x000a000300000059,0x0000000000000000"
module asm ".quad 0x0000000000000000,0x00070003000000e8,0x0000000000000000,0x0000000000000000"
module asm ".quad 0x0008000300000129,0x0000000000000000,0x0000000000000000,0x000b00030000018a"
module asm ".quad 0x0000000000000000,0x0000000000000000,0x000c0003000001e3,0x0000000000000000"
module asm ".quad 0x0000000000000000,0x000900030000028a,0x0000000000000000,0x0000000000000000"
module asm ".quad 0x000a101200000032,0x0000000000000000,0x00000000000002c0,0x000b101200000165"
module asm ".quad 0x0000000000000000,0x00000000000004c0,0x0000000800082f04,0x0008230400000011"
module asm ".quad 0x0000000000000008,0x0000000800081204,0x0008110400000000,0x0000000000000008"
module asm ".quad 0x0000000700082f04,0x0008230400000015,0x0000000000000007,0x0000000700081204"
module asm ".quad 0x0008110400000000,0x0000000000000007,0x0000000300080a04,0x0030190300300140"
module asm ".quad 0x00000000000c1704,0x0021f00000280005,0x00000000000c1704,0x0021f00000200004"
module asm ".quad 0x00000000000c1704,0x0011f00000180003,0x00000000000c1704,0x0021f00000100002"
module asm ".quad 0x00000000000c1704,0x0011f00000080001,0x00000000000c1704,0x0021f00000000000"
module asm ".quad 0x00041d04003f1b03,0x00081c0400000010,0x00000290000001a8,0x0000000600080a04"
module asm ".quad 0x0028190300280140,0x00000000000c1704,0x0011f00000240005,0x00000000000c1704"
module asm ".quad 0x0011f00000200004,0x00000000000c1704,0x0021f00000180003,0x00000000000c1704"
module asm ".quad 0x0021f00000100002,0x00000000000c1704,0x0021f00000080001,0x00000000000c1704"
module asm ".quad 0x0021f00000000000,0x00041d04003f1b03,0x00081c0400000020,0x0000049800000460"
module asm ".quad 0x3fd3333333333333,0x0000000000000000,0x0000000000000000,0x0000000000000000"
module asm ".quad 0x0000000000000000,0x0000000000000000,0x0000000000000000,0x0000000000000000"
module asm ".quad 0x0000000000000000,0x0000000000000000,0x0000000000000000,0x0000000000000000"
module asm ".quad 0x0000000000000000,0x0000000000000000,0x0000000000000000,0x0000000000000000"
module asm ".quad 0x0000000000000000,0x0000000000000000,0x0000000000000000,0x0000000000000000"
module asm ".quad 0x0000000000000000,0x0000000000000000,0x0000000000000000,0x0000000000000000"
module asm ".quad 0x0000000000000000,0x0000000000000000,0x0000000000000000,0x0000000000000000"
module asm ".quad 0x0000000000000000,0x0000000000000000,0x0000000000000000,0x0000000000000000"
module asm ".quad 0x0000000000000000,0x0000000000000000,0x0000000000000000,0x0000000000000000"
module asm ".quad 0x0000000000000000,0x0000000000000000,0x0000000000000000,0x0000000000000000"
module asm ".quad 0x0000000000000000,0x0000000000000000,0x0000000000000000,0x0000000000000000"
module asm ".quad 0x0000000000000000,0x0000000000000000,0x0000000000000000,0x0000000000000000"
module asm ".quad 0x0000000000000000,0x0000000000000000,0x0000000000000000,0x0000000000000000"
module asm ".quad 0x0000000000000000,0x0000000000000000,0x0000000000000000,0x0000000000000000"
module asm ".quad 0x0000000000000000,0x0000000000000000,0x0000000000000000,0x0000000000000000"
module asm ".quad 0x0000000000000000,0x0000000000000000,0x0000000000000000,0x0000000000000000"
module asm ".quad 0x0000000000000000,0x0000000000000000,0x0000000000000000,0x0000000000000000"
module asm ".quad 0x0000000000000000,0x0000000000000000,0x0000000000000000,0x0000000000000000"
module asm ".quad 0x0000000000000000,0x0000000000000000,0x0000000000000000,0x0000000000000000"
module asm ".quad 0x0000000000000000,0x0000000000000000,0x0000000000000000,0x0000000000000000"
module asm ".quad 0x0000000000000000,0x0000000000000000,0x0000000000000000,0x0000000000000000"
module asm ".quad 0x0000000000000000,0x0000000000000000,0x0000000000000000,0x0000000000000000"
module asm ".quad 0x0000000000000000,0x0000000000000000,0x0000000000000000,0x0000000000000000"
module asm ".quad 0x0000000000000000,0x0000000000000000,0x0000000000000000,0x0000000000000000"
module asm ".quad 0x0000000000000000,0x0000000000000000,0x22304240423042b7,0x2800400110005de4"
module asm ".quad 0x2c00000098029c04,0x280040052000dde4,0x1800000010001de2,0x2c00000088031c04"
module asm ".quad 0x2c0000008402dc04,0x080000000430dc02,0x2282304280424047,0x2018c00040a1dca3"
module asm ".quad 0x6800000028c29c43,0x4800400520b11c03,0x4001400500b09c43,0x200800000c725ca3"
module asm ".quad 0x1a8e0000fca1dc23,0x2080800510b0dce3,0x22c202c04282c047,0x40014005a0911c43"
module asm ".quad 0x8400000010239c85,0x20808005b0915ce3,0x4001400540719c43,0x8400000020441c85"
module asm ".quad 0x208080055071dce3,0x4001400580921c43,0x231282c283f28047,0x8400000010635c85"
module asm ".quad 0x2080800590925ce3,0x8400000020851c85,0x1000000039339c04,0x5000480000e39c01"
module asm ".quad 0x1000000041341c04,0x5000480001049c01,0x2232e28292823287,0x1000000035341c04"
module asm ".quad 0x2024000040e39c01,0x1000000051341c04,0x4800000040e39c01,0x1000000039a35c04"
module asm ".quad 0x9400000020835c85,0x8400000010239c85,0x228232324233f237,0x8400000020441c85"
module asm ".quad 0x8400000010619c85,0x1000000039339c04,0x1000000041341c04,0x5000480000e39c01"
module asm ".quad 0x5000480001049c01,0x1000000019341c04,0x22c282e202e28297,0x2024000040e39c01"
module asm ".quad 0x1000000039a3dc04,0x940000002043dc85,0x500ec000000fdc04,0x80000000000001e7"
module asm ".quad 0x0800000004b2dc02,0x40014005a0b11c43,0x2283f28042c04287,0x20808005b0b15ce3"
module asm ".quad 0x4001400580b29c43,0x8400000000419c85,0x2080800590b2dce3,0x8400000010201c85"
module asm ".quad 0x8400000000a31c85,0x1000000019319c04,0x22e2829282328237,0x5000480000621c01"
module asm ".quad 0x1000000001319c04,0x2010480000619c01,0x1000000031321c04,0x4800000020619c01"
module asm ".quad 0x1000000019a31c04,0x9400000000a31c85,0x228292823283f237,0x8400000000419c85"
module asm ".quad 0x8400000010209c85,0x1000000019319c04,0x5000480000621c01,0x1000000009319c04"
module asm ".quad 0x2010480000619c01,0x1000000019a1dc04,0x200000000002e047,0x940000000041dc85"
module asm ".quad 0x8000000000001de7,0x4003ffffe0001de7,0x4000000000001de4,0x4000000000001de4"
module asm ".quad 0x4000000000001de4,0x4000000000001de4,0x2272020042804307,0x2800400110005de4"
module asm ".quad 0x2c00000084015c04,0x2800400590019de4,0x2c00000098001c04,0x0800000004619c02"
module asm ".quad 0x2c00000088011c04,0x1a8e0000fc51dc23,0x220282c230424047,0x2008c00040009ca3"
module asm ".quad 0x1b0e0000fc45dc23,0x180000001000e1e2,0x6000c0000841dc03,0x4001400500222043"
module asm ".quad 0x20868005102260e3,0x8400000010826085,0x228232c280428047,0x480040059050dc03"
module asm ".quad 0x1804c00011231c04,0x200600001820dca3,0x1800000010019de2,0x4001400540309c43"
module asm ".quad 0x208c80055030dce3,0x1804c00009221c04,0x2202828042804287,0xc800000010821c00"
module asm ".quad 0x083ffffff8821c02,0xc800000010c31c00,0x1486000021221c04,0x083ffffff8c31c02"
module asm ".quad 0x207ec0000882de03,0x201000002c82dc43,0x22423042e2e043f7,0x1c00000011221ec4"
module asm ".quad 0xc900000000726085,0x5000000020b2dc43,0x500ec000000fdc04,0x8400000020229c85"
module asm ".quad 0x2010fffff8b2dca3,0x1804c00021225c04,0x2272004282022047,0x1486000031231c04"
module asm ".quad 0x1b0ec00008b1dc03,0x1804c0004123dc04,0xc800000010925c00,0x207ec00010c35e03"
module asm ".quad 0x0bfffffff8b2c002,0x083ffffff8939c02,0x22020042a2020047,0x4000c00100425cc3"
module asm ".quad 0x1b0ec00008b1dc03,0x1486000039239c04,0xc800000010f3dc00,0x2018000034c31c43"
module asm ".quad 0x0bfffffff8b2c002,0x2012c00010525ca3,0x2232323232320267,0x083ffffff8f3dc02"
module asm ".quad 0x1a8e0000fcb3dc23,0x207ec00020e2de03,0x5000000020c31c43,0x148600003d23dc04"
module asm ".quad 0x201c00002ce39c43,0x2010fffff0c35ca3,0x2272004282304247,0x207ec00040f41e03"
module asm ".quad 0x5000000020e39c43,0x1b0ec00010d1dc03,0x201e000040f3dc43,0x2010ffffe0e39ca3"
module asm ".quad 0x0bfffffff0d34002,0x5000000020f3dc43,0x22b2028042b20207,0x1b0ec00020e7dc03"
module asm ".quad 0x1b0ec00010d1dc03,0x2010ffffc0f3dca3,0x0bffffffe0e38c02,0x0bfffffff0d34002"
module asm ".quad 0x1b0ec00020e7dc03,0x1a8e0000fcd1dc23,0x22c282b200428207,0x0bffffffe0e38c02"
module asm ".quad 0x0800000008422002,0x1b0ec00040f7dc03,0x4000c001008220c3,0x1a8e0000fce9dc23"
module asm ".quad 0x0bffffffc0f3cc02,0x1b0ec00040f7dc03,0x223042d202e3f287,0x0bffffffc0f3cc02"
module asm ".quad 0x1a8e0000fcf7dc23,0xc900000000929c85,0x500ec000000fdc04,0x080000000442a402"
module asm ".quad 0x4000c00100a2a4c3,0xc10000000072dc85,0x2232d202e0428377,0xc100000000931c85"
module asm ".quad 0x5800000030b31c00,0x2014c0001052e4a3,0xc900000000931c85,0x500ec000000fdc04"
module asm ".quad 0x2010c000105320a3,0xc10000000092a485,0x223042e202e28377,0xc100000000b2e485"
module asm ".quad 0x500000002ca2a400,0xc90000000092a485,0x0c0e00001c43dc04,0x500ec000000fdc04"
module asm ".quad 0x0c0e00001c43e804,0xc100000000c32085,0x22d200428042e287,0xc100000000922085"
module asm ".quad 0x080000001042e402,0x4000c00100b2e4c3,0x5000000030822000,0x0800000020432c02"
module asm ".quad 0xc900000000922085,0x2016c0001052e4a3,0x2283723042e20047,0x4000c00100c32cc3"
module asm ".quad 0x1a8e0000fc51dc23,0x500ec000000fdc04,0x2018c00010532ca3,0xc100000000b2e485"
module asm ".quad 0xc10000000092a485,0x500000002ca2a400,0x22e2e2837232e2e7,0xc90000000092a485"
module asm ".quad 0x500ec000000fdc04,0xc100000000c32c85,0xc100000000922c85,0x5000000030822c00"
module asm ".quad 0xc900000000922c85,0x500ec000000fdc04,0x22c28042f202e377,0xc10000000092dc85"
module asm ".quad 0x940000002022dc85,0x500ec000000fdc04,0x80000000000001e7,0x2008400590001ca3"
module asm ".quad 0xc10000010071dc85,0x4001400560009c43,0x2000000002e04287,0x208c80057000dce3"
module asm ".quad 0x940000000021dc85,0x8000000000001de7,0x4003ffffe0001de7,0x4000000000001de4"
module asm ".quad 0x4000000000001de4,0x4000000000001de4,0x0000000000000000,0x0000000000000000"
module asm ".quad 0x0000000000000000,0x0000000000000000,0x0000000000000000,0x0000000000000000"
module asm ".quad 0x0000000000000000,0x0000000000000000,0x0000000300000001,0x0000000000000000"
module asm ".quad 0x0000000000000000,0x0000000000000040,0x00000000000001e7,0x0000000000000000"
module asm ".quad 0x0000000000000001,0x0000000000000000,0x000000030000000b,0x0000000000000000"
module asm ".quad 0x0000000000000000,0x0000000000000227,0x00000000000002bd,0x0000000000000000"
module asm ".quad 0x0000000000000001,0x0000000000000000,0x0000000200000013,0x0000000000000000"
module asm ".quad 0x0000000000000000,0x00000000000004e8,0x00000000000000d8,0x0000000600000002"
module asm ".quad 0x0000000000000008,0x0000000000000018,0x7000000000000029,0x0000000000000000"
module asm ".quad 0x0000000000000000,0x00000000000005c0,0x0000000000000060,0x0000000000000003"
module asm ".quad 0x0000000000000004,0x0000000000000000,0x700000000000005f,0x0000000000000000"
module asm ".quad 0x0000000000000000,0x0000000000000620,0x0000000000000088,0x0000000a00000003"
module asm ".quad 0x0000000000000004,0x0000000000000000,0x7000000000000156,0x0000000000000000"
module asm ".quad 0x0000000000000000,0x00000000000006a8,0x0000000000000088,0x0000000b00000003"
module asm ".quad 0x0000000000000004,0x0000000000000000,0x00000001000000c1,0x0000000000000002"
module asm ".quad 0x0000000000000000,0x0000000000000730,0x0000000000000008,0x0000000a00000000"
module asm ".quad 0x0000000000000004,0x0000000000000000,0x00000001000000f6,0x0000000000000002"
module asm ".quad 0x0000000000000000,0x0000000000000738,0x0000000000000170,0x0000000a00000000"
module asm ".quad 0x0000000000000004,0x0000000000000000,0x00000001000001b4,0x0000000000000002"
module asm ".quad 0x0000000000000000,0x00000000000008a8,0x0000000000000168,0x0000000b00000000"
module asm ".quad 0x0000000000000004,0x0000000000000000,0x0000000100000032,0x0000000000100006"
module asm ".quad 0x0000000000000000,0x0000000000000a40,0x00000000000002c0,0x1500000700000003"
module asm ".quad 0x0000000000000040,0x0000000000000000,0x000000010000012b,0x0000000000100006"
module asm ".quad 0x0000000000000000,0x0000000000000d00,0x00000000000004c0,0x1100000800000003"
module asm ".quad 0x0000000000000040,0x0000000000000000,0x0000000800000184,0x0000000000000003"
module asm ".quad 0x0000000000000000,0x00000000000011c0,0x0000000000000440,0x0000000b00000000"
module asm ".quad 0x0000000000000004,0x0000000000000000,0x0000000500000006,0x0000000000001500"
module asm ".quad 0x0000000000000000,0x0000000000000000,0x00000000000000a8,0x00000000000000a8"
module asm ".quad 0x0000000000000008,0x0000000500000001,0x0000000000000730,0x0000000000000000"
module asm ".quad 0x0000000000000000,0x0000000000000a60,0x0000000000000a60,0x0000000000000008"
module asm ".quad 0x0000000600000001,0x00000000000011c0,0x0000000000000000,0x0000000000000000"
module asm ".quad 0x0000000000000000,0x0000000000000440,0x0000000000000008,0x0000004801010001"
module asm ".quad 0x0000000000000808,0x0000004000000802,0x0000001e00060005,0x0000000000000000"
module asm ".quad 0x0000000000002011,0x0000000000000000,0x0000000000001725,0x0000000000000000"
module asm ".quad 0x762e1cf400010a13,0x36206e6f69737265,0x677261742e0a352e,0x30335f6d73207465"
module asm ".quad 0x7365726464612e0a,0x3620657a69735f73,0x6973691df0003134,0x746e652e20656c62"
module asm ".quad 0x6232325a5f207972,0x6579616c5f6e6e70,0x64726177726f6672,0x536650414455435f"
module asm ".quad 0x28696900ff00025f,0x206d617261702e0a,0x111200323436752e,0x3a2c305f3f00305f"
module asm ".quad 0x1f26003a311f2500,0x003a331726003a32,0x341f19003a32332f,0x290a3508f326003a"
module asm ".quad 0x206765722e0a7b0a,0x702520646572702e,0x669500123b3e363c,0x31323c6625203233"
module asm ".quad 0x7246001262100012,0x3603f0001237333c,0x33313c6472252034,0x68732e090a0a3b3e"
module asm ".quad 0x6c612e00ff004861,0x622e2034206e6769,0xff1000925a5f2038,0x75706e6930314502"
module asm ".quad 0x365b65646f6e5f74,0x3303f12d004f5d34,0x6d5f746867696577,0x30315b7869727461"
module asm ".quad 0x012c646c22005432,0x2c334f00ba752e22,0x5d303d1801325b20,0x1b0043341f00433b"
module asm ".quad 0x43351f000043321f,0x9501004333191b00,0x741b004331312f01,0x3e766f6d0a3b5d35"
module asm ".quad 0x746325202c00f300,0x730a3b792e646961,0x2c32313201ea6c68,0x1500002d3418001d"
module asm ".quad 0x646151002b741200,0x2c33230015732e64,0x002d32317238001a,0x00587819002d3413"
module asm ".quad 0x313f002b09002e04,0x00850820022c2c34,0x00630000472c3523,0x2e707465730a3b90"
module asm ".quad 0x70250952001d656e,0x3b3013f4008f2c32,0x726220327025400a,0x3b325f3042422061"
module asm ".quad 0x742e617476630a0a,0x6c61626f6c672e6f,0xa302222c36210196,0x69772e6c756d0a3b"
module asm ".quad 0x2c37643200676564,0x2f02007d341300f2,0x371100352c382600,0x034902004f0301a1"
module asm ".quad 0x2b1000260001e400,0x0102dc7473230288,0x5d3572255b60001d,0x940a0a3b3100242c"
module asm ".quad 0x31110400933a1f00,0x008e01007804005e,0x252a02002c353133,0x9300193614001972"
module asm ".quad 0x6c2e64616d0a3b31,0x01b22c3624001a6f,0x620a3b35de002403,0x20636e79732e7261"
module asm ".quad 0x00352c392200f030,0x00922c322600f00a,0x00f0361200f0391e,0x1301fc5d382b3249"
module asm ".quad 0x2f01fc361901fc37,0x00f1092303d92c38,0x006700004b2c3923,0x01fd303223007508"
module asm ".quad 0x352c372500303218,0x1100019430322f00,0x28011c361a019437,0x376625420026646c"
module asm ".quad 0x3822001a0e01bf2c,0x150201500200452c,0x253f00192c392201,0x8d391b0600713766"
module asm ".quad 0x31a0003d766f2301,0x3831346630202c30,0x676c0a3bc4000130,0x786f727070612e32"
module asm ".quad 0xfa0300262c110021,0xfb662e75746c5102,0x3044001d2c332202,0x254045003d463366"
module asm ".quad 0x0a3b373803043370,0x302f006832110068,0x1a01fa0005006830,0x026736332203e866"
module asm ".quad 0x007030322a004505,0x010c3a342702d801,0x257c002801040601,0x00ce78650a3b3266"
module asm ".quad 0x0c3b1000262c3421,0x01b7697a722e4003,0x730148721100d202,0xce6d65720a3b3431"
module asm ".quad 0x253c025932322301,0x212c342303fc3972,0x00f9341503fd0200,0x312501b80a3b363d"
module asm ".quad 0xe07268733301b935,0x2c48005933322100,0x3432230243313320,0x0030090022000017"
module asm ".quad 0x00300a001f2c3523,0x02a209001d2c3626,0x303619001f2c3723,0x1a37322802d30700"
module asm ".quad 0x1f00202c31333500,0xc636312100029832,0x0300365d31333200,0x00e2010067000016"
module asm ".quad 0x230602830f002200,0x8c3a362901b13731,0xf62c3626007f0702,0x436e1001a0631001"
module asm ".quad 0x3401d50201700200,0x2e6531028a363372,0x1101f23516018866,0x13018a3515018a31"
module asm ".quad 0x00343a3722007234,0x317026004c716522,0x03630600e40d05b8,0x047904047e747328"
module asm ".quad 0x550350381a006901,0x0000773170252140,0x6e752e617261036d,0x1f00863813000f69"
module asm ".quad 0x2900da0106058138,0x04783417010c3564,0x8b39120000a7331f,0x332305885d342b01"
module asm ".quad 0x321e05c004076035,0x002a00001902057c,0x9004079c02057e0a,0x2201010331312f00"
module asm ".quad 0x00d6391301023231,0x3b7465720a3a399f,0x7d3411030b8b7d0a,0x7473756a64617205"
module asm ".quad 0x75635f73c005665f,0x695f536966506164,0x00340f0b8d0d0581,0x32332f000b8f0f10"
module asm ".quad 0x00782c312f1b003c,0x331f280078321f27,0x28003c341f280078,0x0b99321c010b990f"
module asm ".quad 0x27022c010b873117,0x5e0226000024313c,0x100bac35323c6466,0x0f020ac70f0bac39"
module asm ".quad 0x440f0a860e1b01d1,0x0b0d0e049e001e00,0x010b520f1c00450f,0x45341f1d0045361f"
module asm ".quad 0x001d0045371f0000,0xf40a0909b90f0807,0x1404020b752c1f08,0xf136150f0b740f04"
module asm ".quad 0x06790208d7351d06,0x060b883316004106,0x253b002a3813002a,0x602c3924049a3372"
module asm ".quad 0x00d7381f004e0100,0x0a330f0a90381405,0x381f030a33331f02,0x05ba2c3123050a33"
module asm ".quad 0x0202c60001483412,0x662201416611063a,0x4e0002dd03006931,0x3364306800190100"
module asm ".quad 0xbf3b1f0001334446,0x361f0305680f0e05,0x322300b50c0f0567,0x130100b60f056c2c"
module asm ".quad 0x1403008e0f08dd33,0x3313008d0d0c2c33,0x2c3426008d0b0857,0x13008c33312e0037"
module asm ".quad 0x8c382b343e008c33,0x42336629003d0000,0x0f001901026c0001,0xd6616d6631010142"
module asm ".quad 0x732c3626002b0207,0x9c351a0006331101,0x9c31642f02b80100,0x351f009c34130600"
module asm ".quad 0x661302660001009c,0x02260000710300ed,0x0864366429001903,0x000d500934366641"
module asm ".quad 0x64000206f80f0026,0x0f0c970e0d500300,0x662902b500070264,0x1a0101f901012236"
module asm ".quad 0x005d0c0101230f00,0x31312309020c371f,0xb6381f00360c0bf8,0x38662a0281010901"
module asm ".quad 0x32312f0181020095,0xc9040b47021101b9,0x0d01a10100850200,0x341f001b39120152"
module asm ".quad 0x9e0f009d00020153,0x2504b7726f23000c,0x0b7f311c048e3031,0x0b7f0200212c3123"
module asm ".quad 0x010f7c3111097e04,0x31312302f7010244,0x312f0003660f0435,0x0cf9351409041c30"
module asm ".quad 0x0b095d361403490d,0x034a05025800034a,0x048c03000070361f,0x362100006f37312f"
module asm ".quad 0xaa0201940a00222c,0x1001940f001c0002,0x2d0e00b80002dd02,0x00b0371a001b0200"
module asm ".quad 0x0100b00f035e3818,0x140102430f048704,0x8602035f070db039,0x3831643f001c030b"
module asm ".quad 0x322f026703000210,0x9f5d382402021130,0x01ac341f008c0d0d,0x0d0dbb2c31323308"
module asm ".quad 0x01070173351f0037,0x0173353166390ddd,0x1203070f00a03213,0x730f007f020daa01"
module asm ".quad 0x01010433322f0401,0x0303150f001c3612,0xcf0a110d495d3724,0x0a0a7d500b600302"
module asm ".quad 0x000000000000000a"
module asm ".text"

%struct.__fatBinC_Wrapper_t = type { i32, i32, i64*, i8* }
%struct.timeval = type { i64, i64 }
%struct.BPNN = type { i32, i32, i32, float*, float*, float*, float*, float*, float*, float**, float**, float**, float** }
%struct.dim3 = type { i32, i32, i32 }
%struct.CUstream_st = type opaque
%struct.uint3 = type { i32, i32, i32 }

$_ZN4dim3C2Ejjj = comdat any

$_ZSt3expf = comdat any

@num_threads = dso_local local_unnamed_addr global i32 0, align 4
@num_blocks = dso_local local_unnamed_addr global i32 0, align 4
@.str.1 = private unnamed_addr constant [23 x i8] c"bpnn kernel error: %s\0A\00", align 1
@_ZL15__fatDeviceText = internal constant %struct.__fatBinC_Wrapper_t { i32 1180844977, i32 1, i64* getelementptr inbounds ([969 x i64], [969 x i64]* @fatbinData, i32 0, i32 0), i8* null }, section ".nvFatBinSegment", align 8
@_ZL20__cudaFatCubinHandle = internal unnamed_addr global i8** null, align 8
@fatbinData = external dso_local constant [969 x i64], align 16
@_ZZL31__nv_cudaEntityRegisterCallbackPPvE5__ref = internal unnamed_addr global i8** null, align 8
@.str.2 = private unnamed_addr constant [39 x i8] c"_Z24bpnn_adjust_weights_cudaPfiS_iS_S_\00", align 1
@.str.3 = private unnamed_addr constant [37 x i8] c"_Z22bpnn_layerforward_CUDAPfS_S_S_ii\00", align 1
@llvm.global_ctors = appending global [1 x { i32, void ()*, i8* }] [{ i32, void ()*, i8* } { i32 65535, void ()* @_ZL24__sti____cudaRegisterAllv, i8* null }]
@str = private unnamed_addr constant [27 x i8] c"Performing GPU computation\00", align 1

; Function Attrs: nounwind uwtable
define dso_local double @_Z7gettimev() local_unnamed_addr #0 {
entry:
  %t = alloca %struct.timeval, align 8
  %0 = bitcast %struct.timeval* %t to i8*
  call void @llvm.lifetime.start.p0i8(i64 16, i8* nonnull %0) #12
  %call = call i32 @gettimeofday(%struct.timeval* nonnull %t, i8* null) #12
  %tv_sec = getelementptr inbounds %struct.timeval, %struct.timeval* %t, i64 0, i32 0
  %1 = load i64, i64* %tv_sec, align 8, !tbaa !2
  %conv = sitofp i64 %1 to double
  %tv_usec = getelementptr inbounds %struct.timeval, %struct.timeval* %t, i64 0, i32 1
  %2 = load i64, i64* %tv_usec, align 8, !tbaa !7
  %conv1 = sitofp i64 %2 to double
  %mul = fmul double %conv1, 0x3EB0C6F7A0B5ED8D
  %add = fadd double %mul, %conv
  call void @llvm.lifetime.end.p0i8(i64 16, i8* nonnull %0) #12
  ret double %add
}

; Function Attrs: argmemonly nounwind
declare void @llvm.lifetime.start.p0i8(i64 immarg, i8* nocapture) #1

; Function Attrs: nofree nounwind
declare dso_local i32 @gettimeofday(%struct.timeval* nocapture, i8* nocapture) local_unnamed_addr #2

; Function Attrs: argmemonly nounwind
declare void @llvm.lifetime.end.p0i8(i64 immarg, i8* nocapture) #1

; Function Attrs: norecurse uwtable
define dso_local i32 @main(i32 %argc, i8** %argv) local_unnamed_addr #3 {
entry:
  %call = tail call i32 @setup(i32 %argc, i8** %argv)
  ret i32 0
}

declare dso_local i32 @setup(i32, i8**) local_unnamed_addr #4

; Function Attrs: uwtable
define dso_local void @bpnn_train_cuda(%struct.BPNN* nocapture readonly %net, float* nocapture readnone %eo, float* nocapture readnone %eh) local_unnamed_addr #5 {
entry:
  %out_err = alloca float, align 4
  %hid_err = alloca float, align 4
  %input_hidden_cuda = alloca float*, align 8
  %input_cuda = alloca float*, align 8
  %output_hidden_cuda = alloca float*, align 8
  %hidden_partial_sum = alloca float*, align 8
  %hidden_delta_cuda = alloca float*, align 8
  %input_prev_weights_cuda = alloca float*, align 8
  %grid = alloca %struct.dim3, align 8
  %threads = alloca %struct.dim3, align 8
  %0 = bitcast float* %out_err to i8*
  call void @llvm.lifetime.start.p0i8(i64 4, i8* nonnull %0) #12
  %1 = bitcast float* %hid_err to i8*
  call void @llvm.lifetime.start.p0i8(i64 4, i8* nonnull %1) #12
  %input_n = getelementptr inbounds %struct.BPNN, %struct.BPNN* %net, i64 0, i32 0
  %2 = load i32, i32* %input_n, align 8, !tbaa !8
  %hidden_n = getelementptr inbounds %struct.BPNN, %struct.BPNN* %net, i64 0, i32 1
  %3 = load i32, i32* %hidden_n, align 4, !tbaa !12
  %output_n = getelementptr inbounds %struct.BPNN, %struct.BPNN* %net, i64 0, i32 2
  %4 = load i32, i32* %output_n, align 8, !tbaa !13
  %5 = bitcast float** %input_hidden_cuda to i8*
  call void @llvm.lifetime.start.p0i8(i64 8, i8* nonnull %5) #12
  %6 = bitcast float** %input_cuda to i8*
  call void @llvm.lifetime.start.p0i8(i64 8, i8* nonnull %6) #12
  %7 = bitcast float** %output_hidden_cuda to i8*
  call void @llvm.lifetime.start.p0i8(i64 8, i8* nonnull %7) #12
  %8 = bitcast float** %hidden_partial_sum to i8*
  call void @llvm.lifetime.start.p0i8(i64 8, i8* nonnull %8) #12
  %9 = bitcast float** %hidden_delta_cuda to i8*
  call void @llvm.lifetime.start.p0i8(i64 8, i8* nonnull %9) #12
  %10 = bitcast float** %input_prev_weights_cuda to i8*
  call void @llvm.lifetime.start.p0i8(i64 8, i8* nonnull %10) #12
  %div = sdiv i32 %2, 16
  store i32 %div, i32* @num_blocks, align 4, !tbaa !14
  %11 = bitcast %struct.dim3* %grid to i8*
  call void @llvm.lifetime.start.p0i8(i64 12, i8* nonnull %11) #12
  call void @_ZN4dim3C2Ejjj(%struct.dim3* nonnull %grid, i32 1, i32 %div, i32 1)
  %12 = bitcast %struct.dim3* %threads to i8*
  call void @llvm.lifetime.start.p0i8(i64 12, i8* nonnull %12) #12
  call void @_ZN4dim3C2Ejjj(%struct.dim3* nonnull %threads, i32 16, i32 16, i32 1)
  %add = add nsw i32 %2, 1
  %add1 = add nsw i32 %3, 1
  %mul = mul nsw i32 %add1, %add
  %conv = sext i32 %mul to i64
  %mul2 = shl nsw i64 %conv, 2
  %call = call noalias i8* @malloc(i64 %mul2) #13
  %13 = bitcast i8* %call to float*
  %call8 = call noalias i8* @malloc(i64 %mul2) #13
  %14 = bitcast i8* %call8 to float*
  %15 = load i32, i32* @num_blocks, align 4, !tbaa !14
  %mul9 = shl i32 %15, 4
  %conv10 = zext i32 %mul9 to i64
  %mul11 = shl nuw nsw i64 %conv10, 2
  %call12 = call noalias i8* @malloc(i64 %mul11) #13
  %16 = bitcast i8* %call12 to float*
  %cmp279 = icmp slt i32 %2, 0
  br i1 %cmp279, label %for.cond.cleanup, label %for.cond13.preheader.lr.ph

for.cond13.preheader.lr.ph:                       ; preds = %entry
  %cmp14275 = icmp slt i32 %3, 0
  %input_weights = getelementptr inbounds %struct.BPNN, %struct.BPNN* %net, i64 0, i32 9
  %input_prev_weights = getelementptr inbounds %struct.BPNN, %struct.BPNN* %net, i64 0, i32 11
  %17 = add i32 %3, 1
  %18 = add nuw i32 %2, 1
  %wide.trip.count295 = zext i32 %18 to i64
  %wide.trip.count291 = zext i32 %17 to i64
  br label %for.cond13.preheader

for.cond13.preheader:                             ; preds = %for.cond.cleanup15, %for.cond13.preheader.lr.ph
  %indvars.iv293 = phi i64 [ %indvars.iv.next294, %for.cond.cleanup15 ], [ 0, %for.cond13.preheader.lr.ph ]
  %m.0282 = phi i32 [ %m.1.lcssa, %for.cond.cleanup15 ], [ 0, %for.cond13.preheader.lr.ph ]
  br i1 %cmp14275, label %for.cond.cleanup15, label %for.body16.lr.ph

for.body16.lr.ph:                                 ; preds = %for.cond13.preheader
  %19 = load float**, float*** %input_weights, align 8, !tbaa !15
  %arrayidx = getelementptr inbounds float*, float** %19, i64 %indvars.iv293
  %20 = load float*, float** %arrayidx, align 8, !tbaa !16
  %21 = load float**, float*** %input_prev_weights, align 8, !tbaa !17
  %arrayidx22 = getelementptr inbounds float*, float** %21, i64 %indvars.iv293
  %22 = load float*, float** %arrayidx22, align 8, !tbaa !16
  %23 = sext i32 %m.0282 to i64
  br label %for.body16

for.cond.cleanup:                                 ; preds = %for.cond.cleanup15, %entry
  %24 = bitcast float** %input_cuda to i8**
  %conv32 = sext i32 %add to i64
  %mul33 = shl nsw i64 %conv32, 2
  %call34 = call i32 @cudaMalloc(i8** nonnull %24, i64 %mul33)
  %25 = bitcast float** %output_hidden_cuda to i8**
  %conv36 = sext i32 %add1 to i64
  %mul37 = shl nsw i64 %conv36, 2
  %call38 = call i32 @cudaMalloc(i8** nonnull %25, i64 %mul37)
  %26 = bitcast float** %input_hidden_cuda to i8**
  %call44 = call i32 @cudaMalloc(i8** nonnull %26, i64 %mul2)
  %27 = bitcast float** %hidden_partial_sum to i8**
  %28 = load i32, i32* @num_blocks, align 4, !tbaa !14
  %mul45 = shl i32 %28, 4
  %conv46 = zext i32 %mul45 to i64
  %mul47 = shl nuw nsw i64 %conv46, 2
  %call48 = call i32 @cudaMalloc(i8** nonnull %27, i64 %mul47)
  %puts = call i32 @puts(i8* getelementptr inbounds ([27 x i8], [27 x i8]* @str, i64 0, i64 0))
  %29 = load i8*, i8** %24, align 8, !tbaa !16
  %input_units = getelementptr inbounds %struct.BPNN, %struct.BPNN* %net, i64 0, i32 3
  %30 = bitcast float** %input_units to i8**
  %31 = load i8*, i8** %30, align 8, !tbaa !18
  %call53 = call i32 @cudaMemcpy(i8* %29, i8* %31, i64 %mul33, i32 1)
  %32 = load i8*, i8** %26, align 8, !tbaa !16
  %call59 = call i32 @cudaMemcpy(i8* %32, i8* %call, i64 %mul2, i32 1)
  %agg.tmp.sroa.0.0..sroa_cast = bitcast %struct.dim3* %grid to i64*
  %agg.tmp.sroa.0.0.copyload = load i64, i64* %agg.tmp.sroa.0.0..sroa_cast, align 8
  %agg.tmp.sroa.2.0..sroa_idx181 = getelementptr inbounds %struct.dim3, %struct.dim3* %grid, i64 0, i32 2
  %agg.tmp.sroa.2.0.copyload = load i32, i32* %agg.tmp.sroa.2.0..sroa_idx181, align 8
  %agg.tmp60.sroa.0.0..sroa_cast = bitcast %struct.dim3* %threads to i64*
  %agg.tmp60.sroa.0.0.copyload = load i64, i64* %agg.tmp60.sroa.0.0..sroa_cast, align 8
  %agg.tmp60.sroa.2.0..sroa_idx180 = getelementptr inbounds %struct.dim3, %struct.dim3* %threads, i64 0, i32 2
  %agg.tmp60.sroa.2.0.copyload = load i32, i32* %agg.tmp60.sroa.2.0..sroa_idx180, align 8
  %call61 = call i32 @__cudaPushCallConfiguration(i64 %agg.tmp.sroa.0.0.copyload, i32 %agg.tmp.sroa.2.0.copyload, i64 %agg.tmp60.sroa.0.0.copyload, i32 %agg.tmp60.sroa.2.0.copyload, i64 0, %struct.CUstream_st* null)
  %tobool = icmp eq i32 %call61, 0
  br i1 %tobool, label %cond.false, label %cond.end

for.cond.cleanup15.loopexit:                      ; preds = %for.body16
  %33 = trunc i64 %indvars.iv.next288 to i32
  br label %for.cond.cleanup15

for.cond.cleanup15:                               ; preds = %for.cond.cleanup15.loopexit, %for.cond13.preheader
  %m.1.lcssa = phi i32 [ %m.0282, %for.cond13.preheader ], [ %33, %for.cond.cleanup15.loopexit ]
  %indvars.iv.next294 = add nuw nsw i64 %indvars.iv293, 1
  %exitcond296 = icmp eq i64 %indvars.iv.next294, %wide.trip.count295
  br i1 %exitcond296, label %for.cond.cleanup, label %for.cond13.preheader

for.body16:                                       ; preds = %for.body16, %for.body16.lr.ph
  %indvars.iv289 = phi i64 [ %indvars.iv.next290, %for.body16 ], [ 0, %for.body16.lr.ph ]
  %indvars.iv287 = phi i64 [ %indvars.iv.next288, %for.body16 ], [ %23, %for.body16.lr.ph ]
  %arrayidx18 = getelementptr inbounds float, float* %20, i64 %indvars.iv289
  %34 = bitcast float* %arrayidx18 to i32*
  %35 = load i32, i32* %34, align 4, !tbaa !19
  %arrayidx20 = getelementptr inbounds float, float* %13, i64 %indvars.iv287
  %36 = bitcast float* %arrayidx20 to i32*
  store i32 %35, i32* %36, align 4, !tbaa !19
  %arrayidx24 = getelementptr inbounds float, float* %22, i64 %indvars.iv289
  %37 = bitcast float* %arrayidx24 to i32*
  %38 = load i32, i32* %37, align 4, !tbaa !19
  %arrayidx26 = getelementptr inbounds float, float* %14, i64 %indvars.iv287
  %39 = bitcast float* %arrayidx26 to i32*
  store i32 %38, i32* %39, align 4, !tbaa !19
  %indvars.iv.next288 = add nsw i64 %indvars.iv287, 1
  %indvars.iv.next290 = add nuw nsw i64 %indvars.iv289, 1
  %exitcond292 = icmp eq i64 %indvars.iv.next290, %wide.trip.count291
  br i1 %exitcond292, label %for.cond.cleanup15.loopexit, label %for.body16

cond.false:                                       ; preds = %for.cond.cleanup
  %40 = load float*, float** %input_cuda, align 8, !tbaa !16
  %41 = load float*, float** %output_hidden_cuda, align 8, !tbaa !16
  %42 = load float*, float** %input_hidden_cuda, align 8, !tbaa !16
  %43 = load float*, float** %hidden_partial_sum, align 8, !tbaa !16
  call void @_Z22bpnn_layerforward_CUDAPfS_S_S_ii(float* %40, float* %41, float* %42, float* %43, i32 %2, i32 %3)
  br label %cond.end

cond.end:                                         ; preds = %for.cond.cleanup, %cond.false
  %call62 = call i32 @cudaThreadSynchronize()
  %call63 = call i32 @cudaGetLastError()
  %cmp64 = icmp eq i32 %call63, 0
  br i1 %cmp64, label %if.end, label %if.then

if.then:                                          ; preds = %cond.end
  %call65 = call i8* @cudaGetErrorString(i32 %call63)
  %call66 = call i32 (i8*, ...) @printf(i8* getelementptr inbounds ([23 x i8], [23 x i8]* @.str.1, i64 0, i64 0), i8* %call65)
  call void @exit(i32 1) #14
  unreachable

if.end:                                           ; preds = %cond.end
  %44 = load i8*, i8** %27, align 8, !tbaa !16
  %45 = load i32, i32* @num_blocks, align 4, !tbaa !14
  %mul67 = shl i32 %45, 4
  %conv68 = zext i32 %mul67 to i64
  %mul69 = shl nuw nsw i64 %conv68, 2
  %call70 = call i32 @cudaMemcpy(i8* %call12, i8* %44, i64 %mul69, i32 2)
  %cmp73272 = icmp slt i32 %3, 1
  br i1 %cmp73272, label %for.cond.cleanup74, label %for.cond77.preheader.lr.ph

for.cond77.preheader.lr.ph:                       ; preds = %if.end
  %input_weights89 = getelementptr inbounds %struct.BPNN, %struct.BPNN* %net, i64 0, i32 9
  %hidden_units = getelementptr inbounds %struct.BPNN, %struct.BPNN* %net, i64 0, i32 4
  %46 = add nuw i32 %3, 1
  %wide.trip.count = zext i32 %46 to i64
  br label %for.cond77.preheader

for.cond77.preheader:                             ; preds = %for.cond.cleanup79, %for.cond77.preheader.lr.ph
  %indvars.iv284 = phi i64 [ %indvars.iv.next285, %for.cond.cleanup79 ], [ 1, %for.cond77.preheader.lr.ph ]
  %47 = load i32, i32* @num_blocks, align 4, !tbaa !14
  %cmp78269 = icmp eq i32 %47, 0
  br i1 %cmp78269, label %for.cond.cleanup79, label %for.body80.lr.ph

for.body80.lr.ph:                                 ; preds = %for.cond77.preheader
  %48 = load i32, i32* @num_blocks, align 4, !tbaa !14
  %49 = zext i32 %48 to i64
  %50 = trunc i64 %indvars.iv284 to i32
  %51 = add i32 %50, -1
  br label %for.body80

for.cond.cleanup74:                               ; preds = %for.cond.cleanup79, %if.end
  %hidden_units105 = getelementptr inbounds %struct.BPNN, %struct.BPNN* %net, i64 0, i32 4
  %52 = load float*, float** %hidden_units105, align 8, !tbaa !21
  %output_units = getelementptr inbounds %struct.BPNN, %struct.BPNN* %net, i64 0, i32 5
  %53 = load float*, float** %output_units, align 8, !tbaa !22
  %hidden_weights = getelementptr inbounds %struct.BPNN, %struct.BPNN* %net, i64 0, i32 10
  %54 = load float**, float*** %hidden_weights, align 8, !tbaa !23
  call void @bpnn_layerforward(float* %52, float* %53, float** %54, i32 %3, i32 %4)
  %output_delta = getelementptr inbounds %struct.BPNN, %struct.BPNN* %net, i64 0, i32 7
  %55 = load float*, float** %output_delta, align 8, !tbaa !24
  %target = getelementptr inbounds %struct.BPNN, %struct.BPNN* %net, i64 0, i32 8
  %56 = load float*, float** %target, align 8, !tbaa !25
  %57 = load float*, float** %output_units, align 8, !tbaa !22
  call void @bpnn_output_error(float* %55, float* %56, float* %57, i32 %4, float* nonnull %out_err)
  %hidden_delta = getelementptr inbounds %struct.BPNN, %struct.BPNN* %net, i64 0, i32 6
  %58 = load float*, float** %hidden_delta, align 8, !tbaa !26
  %59 = load float*, float** %output_delta, align 8, !tbaa !24
  %60 = load float**, float*** %hidden_weights, align 8, !tbaa !23
  %61 = load float*, float** %hidden_units105, align 8, !tbaa !21
  call void @bpnn_hidden_error(float* %58, i32 %3, float* %59, i32 %4, float** %60, float* %61, float* nonnull %hid_err)
  %62 = load float*, float** %output_delta, align 8, !tbaa !24
  %63 = load float*, float** %hidden_units105, align 8, !tbaa !21
  %64 = load float**, float*** %hidden_weights, align 8, !tbaa !23
  %hidden_prev_weights = getelementptr inbounds %struct.BPNN, %struct.BPNN* %net, i64 0, i32 12
  %65 = load float**, float*** %hidden_prev_weights, align 8, !tbaa !27
  call void @bpnn_adjust_weights(float* %62, i32 %4, float* %63, i32 %3, float** %64, float** %65)
  %66 = bitcast float** %hidden_delta_cuda to i8**
  %call116 = call i32 @cudaMalloc(i8** nonnull %66, i64 %mul37)
  %67 = bitcast float** %input_prev_weights_cuda to i8**
  %call122 = call i32 @cudaMalloc(i8** nonnull %67, i64 %mul2)
  %68 = load i8*, i8** %66, align 8, !tbaa !16
  %69 = bitcast float** %hidden_delta to i8**
  %70 = load i8*, i8** %69, align 8, !tbaa !26
  %call127 = call i32 @cudaMemcpy(i8* %68, i8* %70, i64 %mul37, i32 1)
  %71 = load i8*, i8** %67, align 8, !tbaa !16
  %call133 = call i32 @cudaMemcpy(i8* %71, i8* %call8, i64 %mul2, i32 1)
  %72 = load i8*, i8** %26, align 8, !tbaa !16
  %call139 = call i32 @cudaMemcpy(i8* %72, i8* %call, i64 %mul2, i32 1)
  %agg.tmp140.sroa.0.0.copyload = load i64, i64* %agg.tmp.sroa.0.0..sroa_cast, align 8
  %agg.tmp140.sroa.2.0.copyload = load i32, i32* %agg.tmp.sroa.2.0..sroa_idx181, align 8
  %agg.tmp141.sroa.0.0.copyload = load i64, i64* %agg.tmp60.sroa.0.0..sroa_cast, align 8
  %agg.tmp141.sroa.2.0.copyload = load i32, i32* %agg.tmp60.sroa.2.0..sroa_idx180, align 8
  %call142 = call i32 @__cudaPushCallConfiguration(i64 %agg.tmp140.sroa.0.0.copyload, i32 %agg.tmp140.sroa.2.0.copyload, i64 %agg.tmp141.sroa.0.0.copyload, i32 %agg.tmp141.sroa.2.0.copyload, i64 0, %struct.CUstream_st* null)
  %tobool143 = icmp eq i32 %call142, 0
  br i1 %tobool143, label %cond.false145, label %cond.end146

for.cond.cleanup79:                               ; preds = %for.body80, %for.cond77.preheader
  %sum.0.lcssa = phi float [ 0.000000e+00, %for.cond77.preheader ], [ %add85, %for.body80 ]
  %73 = load float**, float*** %input_weights89, align 8, !tbaa !15
  %74 = load float*, float** %73, align 8, !tbaa !16
  %arrayidx92 = getelementptr inbounds float, float* %74, i64 %indvars.iv284
  %75 = load float, float* %arrayidx92, align 4, !tbaa !19
  %add93 = fadd float %sum.0.lcssa, %75
  %sub94 = fsub float -0.000000e+00, %add93
  %call95 = call float @_ZSt3expf(float %sub94)
  %conv96 = fpext float %call95 to double
  %add97 = fadd double %conv96, 1.000000e+00
  %div98 = fdiv double 1.000000e+00, %add97
  %conv99 = fptrunc double %div98 to float
  %76 = load float*, float** %hidden_units, align 8, !tbaa !21
  %arrayidx101 = getelementptr inbounds float, float* %76, i64 %indvars.iv284
  store float %conv99, float* %arrayidx101, align 4, !tbaa !19
  %indvars.iv.next285 = add nuw nsw i64 %indvars.iv284, 1
  %exitcond = icmp eq i64 %indvars.iv.next285, %wide.trip.count
  br i1 %exitcond, label %for.cond.cleanup74, label %for.cond77.preheader

for.body80:                                       ; preds = %for.body80.lr.ph, %for.body80
  %indvars.iv = phi i64 [ 0, %for.body80.lr.ph ], [ %indvars.iv.next, %for.body80 ]
  %sum.0271 = phi float [ 0.000000e+00, %for.body80.lr.ph ], [ %add85, %for.body80 ]
  %77 = trunc i64 %indvars.iv to i32
  %78 = mul i32 %3, %77
  %sub = add i32 %51, %78
  %idxprom83 = sext i32 %sub to i64
  %arrayidx84 = getelementptr inbounds float, float* %16, i64 %idxprom83
  %79 = load float, float* %arrayidx84, align 4, !tbaa !19
  %add85 = fadd float %sum.0271, %79
  %indvars.iv.next = add nuw nsw i64 %indvars.iv, 1
  %cmp78 = icmp ult i64 %indvars.iv.next, %49
  br i1 %cmp78, label %for.body80, label %for.cond.cleanup79

cond.false145:                                    ; preds = %for.cond.cleanup74
  %80 = load float*, float** %hidden_delta_cuda, align 8, !tbaa !16
  %81 = load float*, float** %input_cuda, align 8, !tbaa !16
  %82 = load float*, float** %input_hidden_cuda, align 8, !tbaa !16
  %83 = load float*, float** %input_prev_weights_cuda, align 8, !tbaa !16
  call void @_Z24bpnn_adjust_weights_cudaPfiS_iS_S_(float* %80, i32 %3, float* %81, i32 %2, float* %82, float* %83)
  br label %cond.end146

cond.end146:                                      ; preds = %for.cond.cleanup74, %cond.false145
  %84 = load i8*, i8** %30, align 8, !tbaa !18
  %85 = load i8*, i8** %24, align 8, !tbaa !16
  %call151 = call i32 @cudaMemcpy(i8* %84, i8* %85, i64 %mul33, i32 2)
  %86 = load i8*, i8** %26, align 8, !tbaa !16
  %call157 = call i32 @cudaMemcpy(i8* %call, i8* %86, i64 %mul2, i32 2)
  %87 = load i8*, i8** %24, align 8, !tbaa !16
  %call158 = call i32 @cudaFree(i8* %87)
  %88 = load i8*, i8** %25, align 8, !tbaa !16
  %call159 = call i32 @cudaFree(i8* %88)
  %89 = load i8*, i8** %26, align 8, !tbaa !16
  %call160 = call i32 @cudaFree(i8* %89)
  %90 = load i8*, i8** %27, align 8, !tbaa !16
  %call161 = call i32 @cudaFree(i8* %90)
  %91 = load i8*, i8** %67, align 8, !tbaa !16
  %call162 = call i32 @cudaFree(i8* %91)
  %92 = load i8*, i8** %66, align 8, !tbaa !16
  %call163 = call i32 @cudaFree(i8* %92)
  call void @free(i8* %call12) #12
  call void @free(i8* %call) #12
  call void @free(i8* %call8) #12
  call void @llvm.lifetime.end.p0i8(i64 12, i8* nonnull %12) #12
  call void @llvm.lifetime.end.p0i8(i64 12, i8* nonnull %11) #12
  call void @llvm.lifetime.end.p0i8(i64 8, i8* nonnull %10) #12
  call void @llvm.lifetime.end.p0i8(i64 8, i8* nonnull %9) #12
  call void @llvm.lifetime.end.p0i8(i64 8, i8* nonnull %8) #12
  call void @llvm.lifetime.end.p0i8(i64 8, i8* nonnull %7) #12
  call void @llvm.lifetime.end.p0i8(i64 8, i8* nonnull %6) #12
  call void @llvm.lifetime.end.p0i8(i64 8, i8* nonnull %5) #12
  call void @llvm.lifetime.end.p0i8(i64 4, i8* nonnull %1) #12
  call void @llvm.lifetime.end.p0i8(i64 4, i8* nonnull %0) #12
  ret void
}

; Function Attrs: nounwind uwtable
define linkonce_odr dso_local void @_ZN4dim3C2Ejjj(%struct.dim3* %this, i32 %vx, i32 %vy, i32 %vz) unnamed_addr #0 comdat align 2 {
entry:
  %x = getelementptr inbounds %struct.dim3, %struct.dim3* %this, i64 0, i32 0
  store i32 %vx, i32* %x, align 4, !tbaa !28
  %y = getelementptr inbounds %struct.dim3, %struct.dim3* %this, i64 0, i32 1
  store i32 %vy, i32* %y, align 4, !tbaa !30
  %z = getelementptr inbounds %struct.dim3, %struct.dim3* %this, i64 0, i32 2
  store i32 %vz, i32* %z, align 4, !tbaa !31
  ret void
}

; Function Attrs: nofree nounwind allocsize(0)
declare dso_local noalias i8* @malloc(i64) local_unnamed_addr #6

declare dso_local i32 @cudaMalloc(i8**, i64) local_unnamed_addr #4

; Function Attrs: nofree nounwind
declare dso_local i32 @printf(i8* nocapture readonly, ...) local_unnamed_addr #2

declare dso_local i32 @cudaMemcpy(i8*, i8*, i64, i32) local_unnamed_addr #4

declare dso_local i32 @__cudaPushCallConfiguration(i64, i32, i64, i32, i64, %struct.CUstream_st*) local_unnamed_addr #4

; Function Attrs: uwtable
define dso_local void @_Z22bpnn_layerforward_CUDAPfS_S_S_ii(float* %__cuda_0, float* %__cuda_1, float* %__cuda_2, float* %__cuda_3, i32 %__cuda_4, i32 %__cuda_5) #5 {
entry:
  tail call void @_Z50__device_stub__Z22bpnn_layerforward_CUDAPfS_S_S_iiPfS_S_S_ii(float* %__cuda_0, float* %__cuda_1, float* %__cuda_2, float* %__cuda_3, i32 %__cuda_4, i32 %__cuda_5)
  ret void
}

declare dso_local i32 @cudaThreadSynchronize() local_unnamed_addr #4

declare dso_local i32 @cudaGetLastError() local_unnamed_addr #4

declare dso_local i8* @cudaGetErrorString(i32) local_unnamed_addr #4

; Function Attrs: noreturn nounwind
declare dso_local void @exit(i32) local_unnamed_addr #7

; Function Attrs: nounwind uwtable
define linkonce_odr dso_local float @_ZSt3expf(float %__x) local_unnamed_addr #0 comdat {
entry:
  %call = tail call float @expf(float %__x) #12
  ret float %call
}

declare dso_local void @bpnn_layerforward(float*, float*, float**, i32, i32) local_unnamed_addr #4

declare dso_local void @bpnn_output_error(float*, float*, float*, i32, float*) local_unnamed_addr #4

declare dso_local void @bpnn_hidden_error(float*, i32, float*, i32, float**, float*, float*) local_unnamed_addr #4

declare dso_local void @bpnn_adjust_weights(float*, i32, float*, i32, float**, float**) local_unnamed_addr #4

; Function Attrs: uwtable
define dso_local void @_Z24bpnn_adjust_weights_cudaPfiS_iS_S_(float* %__cuda_0, i32 %__cuda_1, float* %__cuda_2, i32 %__cuda_3, float* %__cuda_4, float* %__cuda_5) #5 {
entry:
  tail call void @_Z52__device_stub__Z24bpnn_adjust_weights_cudaPfiS_iS_S_PfiS_iS_S_(float* %__cuda_0, i32 %__cuda_1, float* %__cuda_2, i32 %__cuda_3, float* %__cuda_4, float* %__cuda_5)
  ret void
}

declare dso_local i32 @cudaFree(i8*) local_unnamed_addr #4

; Function Attrs: nounwind
declare dso_local void @free(i8* nocapture) local_unnamed_addr #8

; Function Attrs: uwtable
define dso_local void @_Z50__device_stub__Z22bpnn_layerforward_CUDAPfS_S_S_iiPfS_S_S_ii(float* %__par0, float* %__par1, float* %__par2, float* %__par3, i32 %__par4, i32 %__par5) local_unnamed_addr #5 {
entry:
  %__par0.addr = alloca float*, align 8
  %__par1.addr = alloca float*, align 8
  %__par2.addr = alloca float*, align 8
  %__par3.addr = alloca float*, align 8
  %__par4.addr = alloca i32, align 4
  %__par5.addr = alloca i32, align 4
  %__args_arr = alloca [6 x i8*], align 16
  %__gridDim = alloca %struct.dim3, align 8
  %__blockDim = alloca %struct.dim3, align 8
  %__sharedMem = alloca i64, align 8
  %__stream = alloca %struct.CUstream_st*, align 8
  store float* %__par0, float** %__par0.addr, align 8, !tbaa !16
  store float* %__par1, float** %__par1.addr, align 8, !tbaa !16
  store float* %__par2, float** %__par2.addr, align 8, !tbaa !16
  store float* %__par3, float** %__par3.addr, align 8, !tbaa !16
  store i32 %__par4, i32* %__par4.addr, align 4, !tbaa !14
  store i32 %__par5, i32* %__par5.addr, align 4, !tbaa !14
  %0 = bitcast [6 x i8*]* %__args_arr to i8*
  call void @llvm.lifetime.start.p0i8(i64 48, i8* nonnull %0) #12
  %1 = bitcast [6 x i8*]* %__args_arr to float***
  store float** %__par0.addr, float*** %1, align 16, !tbaa !16
  %arrayidx2 = getelementptr inbounds [6 x i8*], [6 x i8*]* %__args_arr, i64 0, i64 1
  %2 = bitcast i8** %arrayidx2 to float***
  store float** %__par1.addr, float*** %2, align 8, !tbaa !16
  %arrayidx5 = getelementptr inbounds [6 x i8*], [6 x i8*]* %__args_arr, i64 0, i64 2
  %3 = bitcast i8** %arrayidx5 to float***
  store float** %__par2.addr, float*** %3, align 16, !tbaa !16
  %arrayidx8 = getelementptr inbounds [6 x i8*], [6 x i8*]* %__args_arr, i64 0, i64 3
  %4 = bitcast i8** %arrayidx8 to float***
  store float** %__par3.addr, float*** %4, align 8, !tbaa !16
  %arrayidx11 = getelementptr inbounds [6 x i8*], [6 x i8*]* %__args_arr, i64 0, i64 4
  %5 = bitcast i8** %arrayidx11 to i32**
  store i32* %__par4.addr, i32** %5, align 16, !tbaa !16
  %arrayidx14 = getelementptr inbounds [6 x i8*], [6 x i8*]* %__args_arr, i64 0, i64 5
  %6 = bitcast i8** %arrayidx14 to i32**
  store i32* %__par5.addr, i32** %6, align 8, !tbaa !16
  %7 = bitcast %struct.dim3* %__gridDim to i8*
  call void @llvm.lifetime.start.p0i8(i64 12, i8* nonnull %7) #12
  call void @_ZN4dim3C2Ejjj(%struct.dim3* nonnull %__gridDim, i32 1, i32 1, i32 1)
  %8 = bitcast %struct.dim3* %__blockDim to i8*
  call void @llvm.lifetime.start.p0i8(i64 12, i8* nonnull %8) #12
  call void @_ZN4dim3C2Ejjj(%struct.dim3* nonnull %__blockDim, i32 1, i32 1, i32 1)
  %9 = bitcast i64* %__sharedMem to i8*
  call void @llvm.lifetime.start.p0i8(i64 8, i8* nonnull %9) #12
  %10 = bitcast %struct.CUstream_st** %__stream to i8*
  call void @llvm.lifetime.start.p0i8(i64 8, i8* nonnull %10) #12
  %call = call i32 @__cudaPopCallConfiguration(%struct.dim3* nonnull %__gridDim, %struct.dim3* nonnull %__blockDim, i64* nonnull %__sharedMem, i8* nonnull %10)
  %cmp = icmp eq i32 %call, 0
  br i1 %cmp, label %if.else, label %cleanup30

if.else:                                          ; preds = %entry
  %arrayidx = getelementptr inbounds [6 x i8*], [6 x i8*]* %__args_arr, i64 0, i64 0
  %agg.tmp22.sroa.0.0..sroa_cast = bitcast %struct.dim3* %__gridDim to i64*
  %agg.tmp22.sroa.0.0.copyload = load i64, i64* %agg.tmp22.sroa.0.0..sroa_cast, align 8
  %agg.tmp22.sroa.2.0..sroa_idx37 = getelementptr inbounds %struct.dim3, %struct.dim3* %__gridDim, i64 0, i32 2
  %agg.tmp22.sroa.2.0.copyload = load i32, i32* %agg.tmp22.sroa.2.0..sroa_idx37, align 8
  %agg.tmp23.sroa.0.0..sroa_cast = bitcast %struct.dim3* %__blockDim to i64*
  %agg.tmp23.sroa.0.0.copyload = load i64, i64* %agg.tmp23.sroa.0.0..sroa_cast, align 8
  %agg.tmp23.sroa.2.0..sroa_idx36 = getelementptr inbounds %struct.dim3, %struct.dim3* %__blockDim, i64 0, i32 2
  %agg.tmp23.sroa.2.0.copyload = load i32, i32* %agg.tmp23.sroa.2.0..sroa_idx36, align 8
  %11 = load i64, i64* %__sharedMem, align 8, !tbaa !32
  %12 = load %struct.CUstream_st*, %struct.CUstream_st** %__stream, align 8, !tbaa !16
  call fastcc void @_ZL16cudaLaunchKernelIcE9cudaErrorPKT_4dim3S4_PPvmP11CUstream_st(i8* bitcast (void (float*, float*, float*, float*, i32, i32)* @_Z22bpnn_layerforward_CUDAPfS_S_S_ii to i8*), i64 %agg.tmp22.sroa.0.0.copyload, i32 %agg.tmp22.sroa.2.0.copyload, i64 %agg.tmp23.sroa.0.0.copyload, i32 %agg.tmp23.sroa.2.0.copyload, i8** nonnull %arrayidx, i64 %11, %struct.CUstream_st* %12)
  br label %cleanup30

cleanup30:                                        ; preds = %entry, %if.else
  call void @llvm.lifetime.end.p0i8(i64 8, i8* nonnull %10) #12
  call void @llvm.lifetime.end.p0i8(i64 8, i8* nonnull %9) #12
  call void @llvm.lifetime.end.p0i8(i64 12, i8* nonnull %8) #12
  call void @llvm.lifetime.end.p0i8(i64 12, i8* nonnull %7) #12
  call void @llvm.lifetime.end.p0i8(i64 48, i8* nonnull %0) #12
  ret void
}

declare dso_local i32 @__cudaPopCallConfiguration(%struct.dim3*, %struct.dim3*, i64*, i8*) local_unnamed_addr #4

; Function Attrs: inlinehint uwtable
define internal fastcc void @_ZL16cudaLaunchKernelIcE9cudaErrorPKT_4dim3S4_PPvmP11CUstream_st(i8* %func, i64 %gridDim.coerce0, i32 %gridDim.coerce1, i64 %blockDim.coerce0, i32 %blockDim.coerce1, i8** %args, i64 %sharedMem, %struct.CUstream_st* %stream) unnamed_addr #9 {
entry:
  %call = tail call i32 @cudaLaunchKernel(i8* %func, i64 %gridDim.coerce0, i32 %gridDim.coerce1, i64 %blockDim.coerce0, i32 %blockDim.coerce1, i8** %args, i64 %sharedMem, %struct.CUstream_st* %stream)
  ret void
}

; Function Attrs: uwtable
define dso_local void @_Z52__device_stub__Z24bpnn_adjust_weights_cudaPfiS_iS_S_PfiS_iS_S_(float* %__par0, i32 %__par1, float* %__par2, i32 %__par3, float* %__par4, float* %__par5) local_unnamed_addr #5 {
entry:
  %__par0.addr = alloca float*, align 8
  %__par1.addr = alloca i32, align 4
  %__par2.addr = alloca float*, align 8
  %__par3.addr = alloca i32, align 4
  %__par4.addr = alloca float*, align 8
  %__par5.addr = alloca float*, align 8
  %__args_arr = alloca [6 x i8*], align 16
  %__gridDim = alloca %struct.dim3, align 8
  %__blockDim = alloca %struct.dim3, align 8
  %__sharedMem = alloca i64, align 8
  %__stream = alloca %struct.CUstream_st*, align 8
  store float* %__par0, float** %__par0.addr, align 8, !tbaa !16
  store i32 %__par1, i32* %__par1.addr, align 4, !tbaa !14
  store float* %__par2, float** %__par2.addr, align 8, !tbaa !16
  store i32 %__par3, i32* %__par3.addr, align 4, !tbaa !14
  store float* %__par4, float** %__par4.addr, align 8, !tbaa !16
  store float* %__par5, float** %__par5.addr, align 8, !tbaa !16
  %0 = bitcast [6 x i8*]* %__args_arr to i8*
  call void @llvm.lifetime.start.p0i8(i64 48, i8* nonnull %0) #12
  %1 = bitcast [6 x i8*]* %__args_arr to float***
  store float** %__par0.addr, float*** %1, align 16, !tbaa !16
  %arrayidx2 = getelementptr inbounds [6 x i8*], [6 x i8*]* %__args_arr, i64 0, i64 1
  %2 = bitcast i8** %arrayidx2 to i32**
  store i32* %__par1.addr, i32** %2, align 8, !tbaa !16
  %arrayidx5 = getelementptr inbounds [6 x i8*], [6 x i8*]* %__args_arr, i64 0, i64 2
  %3 = bitcast i8** %arrayidx5 to float***
  store float** %__par2.addr, float*** %3, align 16, !tbaa !16
  %arrayidx8 = getelementptr inbounds [6 x i8*], [6 x i8*]* %__args_arr, i64 0, i64 3
  %4 = bitcast i8** %arrayidx8 to i32**
  store i32* %__par3.addr, i32** %4, align 8, !tbaa !16
  %arrayidx11 = getelementptr inbounds [6 x i8*], [6 x i8*]* %__args_arr, i64 0, i64 4
  %5 = bitcast i8** %arrayidx11 to float***
  store float** %__par4.addr, float*** %5, align 16, !tbaa !16
  %arrayidx14 = getelementptr inbounds [6 x i8*], [6 x i8*]* %__args_arr, i64 0, i64 5
  %6 = bitcast i8** %arrayidx14 to float***
  store float** %__par5.addr, float*** %6, align 8, !tbaa !16
  %7 = bitcast %struct.dim3* %__gridDim to i8*
  call void @llvm.lifetime.start.p0i8(i64 12, i8* nonnull %7) #12
  call void @_ZN4dim3C2Ejjj(%struct.dim3* nonnull %__gridDim, i32 1, i32 1, i32 1)
  %8 = bitcast %struct.dim3* %__blockDim to i8*
  call void @llvm.lifetime.start.p0i8(i64 12, i8* nonnull %8) #12
  call void @_ZN4dim3C2Ejjj(%struct.dim3* nonnull %__blockDim, i32 1, i32 1, i32 1)
  %9 = bitcast i64* %__sharedMem to i8*
  call void @llvm.lifetime.start.p0i8(i64 8, i8* nonnull %9) #12
  %10 = bitcast %struct.CUstream_st** %__stream to i8*
  call void @llvm.lifetime.start.p0i8(i64 8, i8* nonnull %10) #12
  %call = call i32 @__cudaPopCallConfiguration(%struct.dim3* nonnull %__gridDim, %struct.dim3* nonnull %__blockDim, i64* nonnull %__sharedMem, i8* nonnull %10)
  %cmp = icmp eq i32 %call, 0
  br i1 %cmp, label %if.else, label %cleanup30

if.else:                                          ; preds = %entry
  %arrayidx = getelementptr inbounds [6 x i8*], [6 x i8*]* %__args_arr, i64 0, i64 0
  %agg.tmp22.sroa.0.0..sroa_cast = bitcast %struct.dim3* %__gridDim to i64*
  %agg.tmp22.sroa.0.0.copyload = load i64, i64* %agg.tmp22.sroa.0.0..sroa_cast, align 8
  %agg.tmp22.sroa.2.0..sroa_idx37 = getelementptr inbounds %struct.dim3, %struct.dim3* %__gridDim, i64 0, i32 2
  %agg.tmp22.sroa.2.0.copyload = load i32, i32* %agg.tmp22.sroa.2.0..sroa_idx37, align 8
  %agg.tmp23.sroa.0.0..sroa_cast = bitcast %struct.dim3* %__blockDim to i64*
  %agg.tmp23.sroa.0.0.copyload = load i64, i64* %agg.tmp23.sroa.0.0..sroa_cast, align 8
  %agg.tmp23.sroa.2.0..sroa_idx36 = getelementptr inbounds %struct.dim3, %struct.dim3* %__blockDim, i64 0, i32 2
  %agg.tmp23.sroa.2.0.copyload = load i32, i32* %agg.tmp23.sroa.2.0..sroa_idx36, align 8
  %11 = load i64, i64* %__sharedMem, align 8, !tbaa !32
  %12 = load %struct.CUstream_st*, %struct.CUstream_st** %__stream, align 8, !tbaa !16
  call fastcc void @_ZL16cudaLaunchKernelIcE9cudaErrorPKT_4dim3S4_PPvmP11CUstream_st(i8* bitcast (void (float*, i32, float*, i32, float*, float*)* @_Z24bpnn_adjust_weights_cudaPfiS_iS_S_ to i8*), i64 %agg.tmp22.sroa.0.0.copyload, i32 %agg.tmp22.sroa.2.0.copyload, i64 %agg.tmp23.sroa.0.0.copyload, i32 %agg.tmp23.sroa.2.0.copyload, i8** nonnull %arrayidx, i64 %11, %struct.CUstream_st* %12)
  br label %cleanup30

cleanup30:                                        ; preds = %entry, %if.else
  call void @llvm.lifetime.end.p0i8(i64 8, i8* nonnull %10) #12
  call void @llvm.lifetime.end.p0i8(i64 8, i8* nonnull %9) #12
  call void @llvm.lifetime.end.p0i8(i64 12, i8* nonnull %8) #12
  call void @llvm.lifetime.end.p0i8(i64 12, i8* nonnull %7) #12
  call void @llvm.lifetime.end.p0i8(i64 48, i8* nonnull %0) #12
  ret void
}

; Function Attrs: uwtable
define internal void @_ZL24__sti____cudaRegisterAllv() #5 {
entry:
  %call = tail call i8** @__cudaRegisterFatBinary(i8* bitcast (%struct.__fatBinC_Wrapper_t* @_ZL15__fatDeviceText to i8*))
  store i8** %call, i8*** @_ZL20__cudaFatCubinHandle, align 8, !tbaa !16
  tail call fastcc void @_ZL31__nv_cudaEntityRegisterCallbackPPv(i8** %call)
  %0 = load i8**, i8*** @_ZL20__cudaFatCubinHandle, align 8, !tbaa !16
  tail call void @__cudaRegisterFatBinaryEnd(i8** %0)
  %call1 = tail call i32 @atexit(void ()* nonnull @_ZL26__cudaUnregisterBinaryUtilv) #12
  ret void
}

declare dso_local i8** @__cudaRegisterFatBinary(i8*) local_unnamed_addr #4

; Function Attrs: uwtable
define internal fastcc void @_ZL31__nv_cudaEntityRegisterCallbackPPv(i8** %__T3) unnamed_addr #5 {
entry:
  store i8** %__T3, i8*** @_ZZL31__nv_cudaEntityRegisterCallbackPPvE5__ref, align 8, !tbaa !16
  tail call fastcc void @_ZL37__nv_save_fatbinhandle_for_managed_rtPPv(i8** %__T3)
  tail call void @__cudaRegisterFunction(i8** %__T3, i8* bitcast (void (float*, i32, float*, i32, float*, float*)* @_Z24bpnn_adjust_weights_cudaPfiS_iS_S_ to i8*), i8* getelementptr inbounds ([39 x i8], [39 x i8]* @.str.2, i64 0, i64 0), i8* getelementptr inbounds ([39 x i8], [39 x i8]* @.str.2, i64 0, i64 0), i32 -1, %struct.uint3* null, %struct.uint3* null, %struct.dim3* null, %struct.dim3* null, i32* null)
  tail call void @__cudaRegisterFunction(i8** %__T3, i8* bitcast (void (float*, float*, float*, float*, i32, i32)* @_Z22bpnn_layerforward_CUDAPfS_S_S_ii to i8*), i8* getelementptr inbounds ([37 x i8], [37 x i8]* @.str.3, i64 0, i64 0), i8* getelementptr inbounds ([37 x i8], [37 x i8]* @.str.3, i64 0, i64 0), i32 -1, %struct.uint3* null, %struct.uint3* null, %struct.dim3* null, %struct.dim3* null, i32* null)
  ret void
}

declare dso_local void @__cudaRegisterFatBinaryEnd(i8**) local_unnamed_addr #4

; Function Attrs: nounwind
declare dso_local i32 @atexit(void ()*) local_unnamed_addr #8

; Function Attrs: uwtable
define internal void @_ZL26__cudaUnregisterBinaryUtilv() #5 {
entry:
  %0 = load i8**, i8*** @_ZL20__cudaFatCubinHandle, align 8, !tbaa !16
  tail call void @__cudaUnregisterFatBinary(i8** %0)
  ret void
}

; Function Attrs: nofree nounwind
declare dso_local float @expf(float) local_unnamed_addr #2

; Function Attrs: nofree norecurse nounwind uwtable writeonly
define internal fastcc void @_ZL37__nv_save_fatbinhandle_for_managed_rtPPv(i8** %in) unnamed_addr #10 {
entry:
  ret void
}

declare dso_local void @__cudaRegisterFunction(i8**, i8*, i8*, i8*, i32, %struct.uint3*, %struct.uint3*, %struct.dim3*, %struct.dim3*, i32*) local_unnamed_addr #4

declare dso_local void @__cudaUnregisterFatBinary(i8**) local_unnamed_addr #4

declare dso_local i32 @cudaLaunchKernel(i8*, i64, i32, i64, i32, i8**, i64, %struct.CUstream_st*) local_unnamed_addr #4

; Function Attrs: nofree nounwind
declare i32 @puts(i8* nocapture readonly) local_unnamed_addr #11

attributes #0 = { nounwind uwtable "correctly-rounded-divide-sqrt-fp-math"="false" "disable-tail-calls"="false" "less-precise-fpmad"="false" "min-legal-vector-width"="0" "no-frame-pointer-elim"="false" "no-infs-fp-math"="false" "no-jump-tables"="false" "no-nans-fp-math"="false" "no-signed-zeros-fp-math"="false" "no-trapping-math"="false" "stack-protector-buffer-size"="8" "target-cpu"="x86-64" "target-features"="+cx8,+fxsr,+mmx,+sse,+sse2,+x87" "unsafe-fp-math"="false" "use-soft-float"="false" }
attributes #1 = { argmemonly nounwind }
attributes #2 = { nofree nounwind "correctly-rounded-divide-sqrt-fp-math"="false" "disable-tail-calls"="false" "less-precise-fpmad"="false" "no-frame-pointer-elim"="false" "no-infs-fp-math"="false" "no-nans-fp-math"="false" "no-signed-zeros-fp-math"="false" "no-trapping-math"="false" "stack-protector-buffer-size"="8" "target-cpu"="x86-64" "target-features"="+cx8,+fxsr,+mmx,+sse,+sse2,+x87" "unsafe-fp-math"="false" "use-soft-float"="false" }
attributes #3 = { norecurse uwtable "correctly-rounded-divide-sqrt-fp-math"="false" "disable-tail-calls"="false" "less-precise-fpmad"="false" "min-legal-vector-width"="0" "no-frame-pointer-elim"="false" "no-infs-fp-math"="false" "no-jump-tables"="false" "no-nans-fp-math"="false" "no-signed-zeros-fp-math"="false" "no-trapping-math"="false" "stack-protector-buffer-size"="8" "target-cpu"="x86-64" "target-features"="+cx8,+fxsr,+mmx,+sse,+sse2,+x87" "unsafe-fp-math"="false" "use-soft-float"="false" }
attributes #4 = { "correctly-rounded-divide-sqrt-fp-math"="false" "disable-tail-calls"="false" "less-precise-fpmad"="false" "no-frame-pointer-elim"="false" "no-infs-fp-math"="false" "no-nans-fp-math"="false" "no-signed-zeros-fp-math"="false" "no-trapping-math"="false" "stack-protector-buffer-size"="8" "target-cpu"="x86-64" "target-features"="+cx8,+fxsr,+mmx,+sse,+sse2,+x87" "unsafe-fp-math"="false" "use-soft-float"="false" }
attributes #5 = { uwtable "correctly-rounded-divide-sqrt-fp-math"="false" "disable-tail-calls"="false" "less-precise-fpmad"="false" "min-legal-vector-width"="0" "no-frame-pointer-elim"="false" "no-infs-fp-math"="false" "no-jump-tables"="false" "no-nans-fp-math"="false" "no-signed-zeros-fp-math"="false" "no-trapping-math"="false" "stack-protector-buffer-size"="8" "target-cpu"="x86-64" "target-features"="+cx8,+fxsr,+mmx,+sse,+sse2,+x87" "unsafe-fp-math"="false" "use-soft-float"="false" }
attributes #6 = { nofree nounwind allocsize(0) "correctly-rounded-divide-sqrt-fp-math"="false" "disable-tail-calls"="false" "less-precise-fpmad"="false" "no-frame-pointer-elim"="false" "no-infs-fp-math"="false" "no-nans-fp-math"="false" "no-signed-zeros-fp-math"="false" "no-trapping-math"="false" "stack-protector-buffer-size"="8" "target-cpu"="x86-64" "target-features"="+cx8,+fxsr,+mmx,+sse,+sse2,+x87" "unsafe-fp-math"="false" "use-soft-float"="false" }
attributes #7 = { noreturn nounwind "correctly-rounded-divide-sqrt-fp-math"="false" "disable-tail-calls"="false" "less-precise-fpmad"="false" "no-frame-pointer-elim"="false" "no-infs-fp-math"="false" "no-nans-fp-math"="false" "no-signed-zeros-fp-math"="false" "no-trapping-math"="false" "stack-protector-buffer-size"="8" "target-cpu"="x86-64" "target-features"="+cx8,+fxsr,+mmx,+sse,+sse2,+x87" "unsafe-fp-math"="false" "use-soft-float"="false" }
attributes #8 = { nounwind "correctly-rounded-divide-sqrt-fp-math"="false" "disable-tail-calls"="false" "less-precise-fpmad"="false" "no-frame-pointer-elim"="false" "no-infs-fp-math"="false" "no-nans-fp-math"="false" "no-signed-zeros-fp-math"="false" "no-trapping-math"="false" "stack-protector-buffer-size"="8" "target-cpu"="x86-64" "target-features"="+cx8,+fxsr,+mmx,+sse,+sse2,+x87" "unsafe-fp-math"="false" "use-soft-float"="false" }
attributes #9 = { inlinehint uwtable "correctly-rounded-divide-sqrt-fp-math"="false" "disable-tail-calls"="false" "less-precise-fpmad"="false" "min-legal-vector-width"="0" "no-frame-pointer-elim"="false" "no-infs-fp-math"="false" "no-jump-tables"="false" "no-nans-fp-math"="false" "no-signed-zeros-fp-math"="false" "no-trapping-math"="false" "stack-protector-buffer-size"="8" "target-cpu"="x86-64" "target-features"="+cx8,+fxsr,+mmx,+sse,+sse2,+x87" "unsafe-fp-math"="false" "use-soft-float"="false" }
attributes #10 = { nofree norecurse nounwind uwtable writeonly "correctly-rounded-divide-sqrt-fp-math"="false" "disable-tail-calls"="false" "less-precise-fpmad"="false" "min-legal-vector-width"="0" "no-frame-pointer-elim"="false" "no-infs-fp-math"="false" "no-jump-tables"="false" "no-nans-fp-math"="false" "no-signed-zeros-fp-math"="false" "no-trapping-math"="false" "stack-protector-buffer-size"="8" "target-cpu"="x86-64" "target-features"="+cx8,+fxsr,+mmx,+sse,+sse2,+x87" "unsafe-fp-math"="false" "use-soft-float"="false" }
attributes #11 = { nofree nounwind }
attributes #12 = { nounwind }
attributes #13 = { nounwind allocsize(0) }
attributes #14 = { noreturn nounwind }

!llvm.module.flags = !{!0}
!llvm.ident = !{!1}

!0 = !{i32 1, !"wchar_size", i32 4}
!1 = !{!"clang version 9.0.0 (tags/RELEASE_900/final)"}
!2 = !{!3, !4, i64 0}
!3 = !{!"_ZTS7timeval", !4, i64 0, !4, i64 8}
!4 = !{!"long", !5, i64 0}
!5 = !{!"omnipotent char", !6, i64 0}
!6 = !{!"Simple C++ TBAA"}
!7 = !{!3, !4, i64 8}
!8 = !{!9, !10, i64 0}
!9 = !{!"_ZTS4BPNN", !10, i64 0, !10, i64 4, !10, i64 8, !11, i64 16, !11, i64 24, !11, i64 32, !11, i64 40, !11, i64 48, !11, i64 56, !11, i64 64, !11, i64 72, !11, i64 80, !11, i64 88}
!10 = !{!"int", !5, i64 0}
!11 = !{!"any pointer", !5, i64 0}
!12 = !{!9, !10, i64 4}
!13 = !{!9, !10, i64 8}
!14 = !{!10, !10, i64 0}
!15 = !{!9, !11, i64 64}
!16 = !{!11, !11, i64 0}
!17 = !{!9, !11, i64 80}
!18 = !{!9, !11, i64 16}
!19 = !{!20, !20, i64 0}
!20 = !{!"float", !5, i64 0}
!21 = !{!9, !11, i64 24}
!22 = !{!9, !11, i64 32}
!23 = !{!9, !11, i64 72}
!24 = !{!9, !11, i64 48}
!25 = !{!9, !11, i64 56}
!26 = !{!9, !11, i64 40}
!27 = !{!9, !11, i64 88}
!28 = !{!29, !10, i64 0}
!29 = !{!"_ZTS4dim3", !10, i64 0, !10, i64 4, !10, i64 8}
!30 = !{!29, !10, i64 4}
!31 = !{!29, !10, i64 8}
!32 = !{!4, !4, i64 0}
